target datalayout = "e-m:e-p270:32:32-p271:32:32-p272:64:64-i64:64-i128:128-f80:128-n8:16:32:64-S128"
target triple = "x86_64-pc-linux-gnu"

%struct.VLCElem = type { %union.anon.1 }
%union.anon.1 = type { %struct.anon }
%struct.anon = type { i16, i16 }
%struct.VLC = type { i32, ptr, i32, i32 }
%struct.anon.2 = type { i16, i8, i8 }

@dv_rl_vlc = internal global [1664 x %struct.VLCElem] zeroinitializer, align 16
@ff_dv_vlc_len = external constant [409 x i8], align 16
@ff_dv_vlc_run = external constant [409 x i8], align 16
@ff_dv_vlc_level = external constant [409 x i8], align 16

; Function Attrs: cold nounwind optsize uwtable
define internal void @dv_init_static() #0 {
  %1 = alloca [1664 x %struct.VLCElem], align 16
  %2 = alloca %struct.VLC, align 8
  %3 = alloca i32, align 4
  %4 = alloca ptr, align 8
  %5 = alloca i32, align 4
  %6 = alloca i32, align 4
  %7 = alloca i32, align 4
  %8 = alloca i32, align 4
  %9 = alloca i32, align 4
  %10 = alloca i32, align 4
  %11 = alloca i32, align 4
  call void @llvm.lifetime.start.p0(i64 6656, ptr %1) #11
  call void @llvm.memset.p0.i64(ptr align 16 %1, i8 0, i64 6656, i1 false)
  call void @llvm.lifetime.start.p0(i64 24, ptr %2) #11
  %12 = getelementptr inbounds nuw %struct.VLC, ptr %2, i32 0, i32 0
  store i32 0, ptr %12, align 8, !tbaa !73
  %13 = getelementptr i8, ptr %2, i64 4
  call void @llvm.memset.p0.i64(ptr align 4 %13, i8 0, i64 4, i1 false)
  %14 = getelementptr inbounds nuw %struct.VLC, ptr %2, i32 0, i32 1
  %15 = getelementptr inbounds [1664 x %struct.VLCElem], ptr %1, i64 0, i64 0
  store ptr %15, ptr %14, align 8, !tbaa !76
  %16 = getelementptr inbounds nuw %struct.VLC, ptr %2, i32 0, i32 2
  store i32 0, ptr %16, align 8, !tbaa !77
  %17 = getelementptr inbounds nuw %struct.VLC, ptr %2, i32 0, i32 3
  store i32 1664, ptr %17, align 4, !tbaa !78
  call void @llvm.lifetime.start.p0(i64 4, ptr %3) #11
  store i32 918, ptr %3, align 4, !tbaa !32
  call void @llvm.lifetime.start.p0(i64 8, ptr %4) #11
  store ptr getelementptr inbounds nuw (%struct.VLCElem, ptr @dv_rl_vlc, i64 918), ptr %4, align 8, !tbaa !79
  call void @llvm.lifetime.start.p0(i64 4, ptr %5) #11
  call void @llvm.lifetime.start.p0(i64 4, ptr %6) #11
  store i32 0, ptr %5, align 4, !tbaa !32
  store i32 0, ptr %6, align 4, !tbaa !32
  br label %18

18:                                               ; preds = %106, %0
  %19 = load i32, ptr %5, align 4, !tbaa !32
  %20 = icmp slt i32 %19, 409
  br i1 %20, label %21, label %111

21:                                               ; preds = %18
  %22 = load i32, ptr %5, align 4, !tbaa !32
  %23 = sext i32 %22 to i64
  %24 = getelementptr inbounds [409 x i8], ptr @ff_dv_vlc_len, i64 0, i64 %23
  %25 = load i8, ptr %24, align 1, !tbaa !33
  %26 = load ptr, ptr %4, align 8, !tbaa !79
  %27 = load i32, ptr %6, align 4, !tbaa !32
  %28 = sext i32 %27 to i64
  %29 = getelementptr inbounds %struct.VLCElem, ptr %26, i64 %28
  %30 = getelementptr inbounds nuw %struct.VLCElem, ptr %29, i32 0, i32 0
  %31 = getelementptr inbounds nuw %struct.anon.2, ptr %30, i32 0, i32 1
  store i8 %25, ptr %31, align 2, !tbaa !33
  %32 = load i32, ptr %5, align 4, !tbaa !32
  %33 = sext i32 %32 to i64
  %34 = getelementptr inbounds [409 x i8], ptr @ff_dv_vlc_run, i64 0, i64 %33
  %35 = load i8, ptr %34, align 1, !tbaa !33
  %36 = load ptr, ptr %4, align 8, !tbaa !79
  %37 = load i32, ptr %6, align 4, !tbaa !32
  %38 = sext i32 %37 to i64
  %39 = getelementptr inbounds %struct.VLCElem, ptr %36, i64 %38
  %40 = getelementptr inbounds nuw %struct.VLCElem, ptr %39, i32 0, i32 0
  %41 = getelementptr inbounds nuw %struct.anon.2, ptr %40, i32 0, i32 2
  store i8 %35, ptr %41, align 1, !tbaa !33
  %42 = load i32, ptr %5, align 4, !tbaa !32
  %43 = sext i32 %42 to i64
  %44 = getelementptr inbounds [409 x i8], ptr @ff_dv_vlc_level, i64 0, i64 %43
  %45 = load i8, ptr %44, align 1, !tbaa !33
  %46 = zext i8 %45 to i16
  %47 = load ptr, ptr %4, align 8, !tbaa !79
  %48 = load i32, ptr %6, align 4, !tbaa !32
  %49 = sext i32 %48 to i64
  %50 = getelementptr inbounds %struct.VLCElem, ptr %47, i64 %49
  %51 = getelementptr inbounds nuw %struct.VLCElem, ptr %50, i32 0, i32 0
  %52 = getelementptr inbounds nuw %struct.anon.2, ptr %51, i32 0, i32 0
  store i16 %46, ptr %52, align 2, !tbaa !33
  %53 = load i32, ptr %5, align 4, !tbaa !32
  %54 = sext i32 %53 to i64
  %55 = getelementptr inbounds [409 x i8], ptr @ff_dv_vlc_level, i64 0, i64 %54
  %56 = load i8, ptr %55, align 1, !tbaa !33
  %57 = icmp ne i8 %56, 0
  br i1 %57, label %58, label %105

58:                                               ; preds = %21
  %59 = load ptr, ptr %4, align 8, !tbaa !79
  %60 = load i32, ptr %6, align 4, !tbaa !32
  %61 = sext i32 %60 to i64
  %62 = getelementptr inbounds %struct.VLCElem, ptr %59, i64 %61
  %63 = getelementptr inbounds nuw %struct.VLCElem, ptr %62, i32 0, i32 0
  %64 = getelementptr inbounds nuw %struct.anon.2, ptr %63, i32 0, i32 1
  %65 = load i8, ptr %64, align 2, !tbaa !33
  %66 = add i8 %65, 1
  store i8 %66, ptr %64, align 2, !tbaa !33
  %67 = load i32, ptr %6, align 4, !tbaa !32
  %68 = add nsw i32 %67, 1
  store i32 %68, ptr %6, align 4, !tbaa !32
  %69 = load i32, ptr %5, align 4, !tbaa !32
  %70 = sext i32 %69 to i64
  %71 = getelementptr inbounds [409 x i8], ptr @ff_dv_vlc_len, i64 0, i64 %70
  %72 = load i8, ptr %71, align 1, !tbaa !33
  %73 = zext i8 %72 to i32
  %74 = add nsw i32 %73, 1
  %75 = trunc i32 %74 to i8
  %76 = load ptr, ptr %4, align 8, !tbaa !79
  %77 = load i32, ptr %6, align 4, !tbaa !32
  %78 = sext i32 %77 to i64
  %79 = getelementptr inbounds %struct.VLCElem, ptr %76, i64 %78
  %80 = getelementptr inbounds nuw %struct.VLCElem, ptr %79, i32 0, i32 0
  %81 = getelementptr inbounds nuw %struct.anon.2, ptr %80, i32 0, i32 1
  store i8 %75, ptr %81, align 2, !tbaa !33
  %82 = load i32, ptr %5, align 4, !tbaa !32
  %83 = sext i32 %82 to i64
  %84 = getelementptr inbounds [409 x i8], ptr @ff_dv_vlc_run, i64 0, i64 %83
  %85 = load i8, ptr %84, align 1, !tbaa !33
  %86 = load ptr, ptr %4, align 8, !tbaa !79
  %87 = load i32, ptr %6, align 4, !tbaa !32
  %88 = sext i32 %87 to i64
  %89 = getelementptr inbounds %struct.VLCElem, ptr %86, i64 %88
  %90 = getelementptr inbounds nuw %struct.VLCElem, ptr %89, i32 0, i32 0
  %91 = getelementptr inbounds nuw %struct.anon.2, ptr %90, i32 0, i32 2
  store i8 %85, ptr %91, align 1, !tbaa !33
  %92 = load i32, ptr %5, align 4, !tbaa !32
  %93 = sext i32 %92 to i64
  %94 = getelementptr inbounds [409 x i8], ptr @ff_dv_vlc_level, i64 0, i64 %93
  %95 = load i8, ptr %94, align 1, !tbaa !33
  %96 = zext i8 %95 to i32
  %97 = sub nsw i32 0, %96
  %98 = trunc i32 %97 to i16
  %99 = load ptr, ptr %4, align 8, !tbaa !79
  %100 = load i32, ptr %6, align 4, !tbaa !32
  %101 = sext i32 %100 to i64
  %102 = getelementptr inbounds %struct.VLCElem, ptr %99, i64 %101
  %103 = getelementptr inbounds nuw %struct.VLCElem, ptr %102, i32 0, i32 0
  %104 = getelementptr inbounds nuw %struct.anon.2, ptr %103, i32 0, i32 0
  store i16 %98, ptr %104, align 2, !tbaa !33
  br label %105

105:                                              ; preds = %58, %21
  br label %106

106:                                              ; preds = %105
  %107 = load i32, ptr %5, align 4, !tbaa !32
  %108 = add nsw i32 %107, 1
  store i32 %108, ptr %5, align 4, !tbaa !32
  %109 = load i32, ptr %6, align 4, !tbaa !32
  %110 = add nsw i32 %109, 1
  store i32 %110, ptr %6, align 4, !tbaa !32
  br label %18, !llvm.loop !80

111:                                              ; preds = %18
  %112 = load i32, ptr %6, align 4, !tbaa !32
  %113 = load ptr, ptr %4, align 8, !tbaa !79
  %114 = getelementptr inbounds %struct.VLCElem, ptr %113, i64 0
  %115 = getelementptr inbounds nuw %struct.VLCElem, ptr %114, i32 0, i32 0
  %116 = getelementptr inbounds nuw %struct.anon.2, ptr %115, i32 0, i32 1
  %117 = call i32 @ff_vlc_init_from_lengths(ptr noundef %2, i32 noundef 10, i32 noundef %112, ptr noundef %116, i32 noundef 4, ptr noundef null, i32 noundef 0, i32 noundef 0, i32 noundef 0, i32 noundef 1, ptr noundef null)
  call void @llvm.lifetime.start.p0(i64 4, ptr %7) #11
  store i32 0, ptr %7, align 4, !tbaa !32
  br label %118

118:                                              ; preds = %187, %111
  %119 = load i32, ptr %7, align 4, !tbaa !32
  %120 = getelementptr inbounds nuw %struct.VLC, ptr %2, i32 0, i32 2
  %121 = load i32, ptr %120, align 8, !tbaa !77
  %122 = icmp slt i32 %119, %121
  br i1 %122, label %124, label %123

123:                                              ; preds = %118
  call void @llvm.lifetime.end.p0(i64 4, ptr %7) #11
  br label %190

124:                                              ; preds = %118
  call void @llvm.lifetime.start.p0(i64 4, ptr %8) #11
  %125 = getelementptr inbounds nuw %struct.VLC, ptr %2, i32 0, i32 1
  %126 = load ptr, ptr %125, align 8, !tbaa !76
  %127 = load i32, ptr %7, align 4, !tbaa !32
  %128 = sext i32 %127 to i64
  %129 = getelementptr inbounds %struct.VLCElem, ptr %126, i64 %128
  %130 = getelementptr inbounds nuw %struct.VLCElem, ptr %129, i32 0, i32 0
  %131 = getelementptr inbounds nuw %struct.anon, ptr %130, i32 0, i32 0
  %132 = load i16, ptr %131, align 2, !tbaa !33
  %133 = sext i16 %132 to i32
  store i32 %133, ptr %8, align 4, !tbaa !32
  call void @llvm.lifetime.start.p0(i64 4, ptr %9) #11
  %134 = getelementptr inbounds nuw %struct.VLC, ptr %2, i32 0, i32 1
  %135 = load ptr, ptr %134, align 8, !tbaa !76
  %136 = load i32, ptr %7, align 4, !tbaa !32
  %137 = sext i32 %136 to i64
  %138 = getelementptr inbounds %struct.VLCElem, ptr %135, i64 %137
  %139 = getelementptr inbounds nuw %struct.VLCElem, ptr %138, i32 0, i32 0
  %140 = getelementptr inbounds nuw %struct.anon, ptr %139, i32 0, i32 1
  %141 = load i16, ptr %140, align 2, !tbaa !33
  %142 = sext i16 %141 to i32
  store i32 %142, ptr %9, align 4, !tbaa !32
  call void @llvm.lifetime.start.p0(i64 4, ptr %10) #11
  call void @llvm.lifetime.start.p0(i64 4, ptr %11) #11
  %143 = load i32, ptr %9, align 4, !tbaa !32
  %144 = icmp slt i32 %143, 0
  br i1 %144, label %145, label %147

145:                                              ; preds = %124
  store i32 0, ptr %11, align 4, !tbaa !32
  %146 = load i32, ptr %8, align 4, !tbaa !32
  store i32 %146, ptr %10, align 4, !tbaa !32
  br label %165

147:                                              ; preds = %124
  %148 = load ptr, ptr %4, align 8, !tbaa !79
  %149 = load i32, ptr %8, align 4, !tbaa !32
  %150 = sext i32 %149 to i64
  %151 = getelementptr inbounds %struct.VLCElem, ptr %148, i64 %150
  %152 = getelementptr inbounds nuw %struct.VLCElem, ptr %151, i32 0, i32 0
  %153 = getelementptr inbounds nuw %struct.anon.2, ptr %152, i32 0, i32 2
  %154 = load i8, ptr %153, align 1, !tbaa !33
  %155 = zext i8 %154 to i32
  %156 = add nsw i32 %155, 1
  store i32 %156, ptr %11, align 4, !tbaa !32
  %157 = load ptr, ptr %4, align 8, !tbaa !79
  %158 = load i32, ptr %8, align 4, !tbaa !32
  %159 = sext i32 %158 to i64
  %160 = getelementptr inbounds %struct.VLCElem, ptr %157, i64 %159
  %161 = getelementptr inbounds nuw %struct.VLCElem, ptr %160, i32 0, i32 0
  %162 = getelementptr inbounds nuw %struct.anon.2, ptr %161, i32 0, i32 0
  %163 = load i16, ptr %162, align 2, !tbaa !33
  %164 = sext i16 %163 to i32
  store i32 %164, ptr %10, align 4, !tbaa !32
  br label %165

165:                                              ; preds = %147, %145
  %166 = load i32, ptr %9, align 4, !tbaa !32
  %167 = trunc i32 %166 to i8
  %168 = load i32, ptr %7, align 4, !tbaa !32
  %169 = sext i32 %168 to i64
  %170 = getelementptr inbounds [1664 x %struct.VLCElem], ptr @dv_rl_vlc, i64 0, i64 %169
  %171 = getelementptr inbounds nuw %struct.VLCElem, ptr %170, i32 0, i32 0
  %172 = getelementptr inbounds nuw %struct.anon.2, ptr %171, i32 0, i32 1
  store i8 %167, ptr %172, align 2, !tbaa !33
  %173 = load i32, ptr %10, align 4, !tbaa !32
  %174 = trunc i32 %173 to i16
  %175 = load i32, ptr %7, align 4, !tbaa !32
  %176 = sext i32 %175 to i64
  %177 = getelementptr inbounds [1664 x %struct.VLCElem], ptr @dv_rl_vlc, i64 0, i64 %176
  %178 = getelementptr inbounds nuw %struct.VLCElem, ptr %177, i32 0, i32 0
  %179 = getelementptr inbounds nuw %struct.anon.2, ptr %178, i32 0, i32 0
  store i16 %174, ptr %179, align 4, !tbaa !33
  %180 = load i32, ptr %11, align 4, !tbaa !32
  %181 = trunc i32 %180 to i8
  %182 = load i32, ptr %7, align 4, !tbaa !32
  %183 = sext i32 %182 to i64
  %184 = getelementptr inbounds [1664 x %struct.VLCElem], ptr @dv_rl_vlc, i64 0, i64 %183
  %185 = getelementptr inbounds nuw %struct.VLCElem, ptr %184, i32 0, i32 0
  %186 = getelementptr inbounds nuw %struct.anon.2, ptr %185, i32 0, i32 2
  store i8 %181, ptr %186, align 1, !tbaa !33
  call void @llvm.lifetime.end.p0(i64 4, ptr %11) #11
  call void @llvm.lifetime.end.p0(i64 4, ptr %10) #11
  call void @llvm.lifetime.end.p0(i64 4, ptr %9) #11
  call void @llvm.lifetime.end.p0(i64 4, ptr %8) #11
  br label %187

187:                                              ; preds = %165
  %188 = load i32, ptr %7, align 4, !tbaa !32
  %189 = add nsw i32 %188, 1
  store i32 %189, ptr %7, align 4, !tbaa !32
  br label %118, !llvm.loop !81

190:                                              ; preds = %123
  call void @llvm.lifetime.end.p0(i64 4, ptr %6) #11
  call void @llvm.lifetime.end.p0(i64 4, ptr %5) #11
  call void @llvm.lifetime.end.p0(i64 8, ptr %4) #11
  call void @llvm.lifetime.end.p0(i64 4, ptr %3) #11
  call void @llvm.lifetime.end.p0(i64 24, ptr %2) #11
  call void @llvm.lifetime.end.p0(i64 6656, ptr %1) #11
  ret void
}