; Function Attrs: cold nounwind optsize uwtable
define internal void @dv_init_static() #0 {
  %1 = alloca [1664 x %struct.VLCElem], align 16
  %2 = alloca %struct.VLC, align 8
  call void @llvm.lifetime.start.p0(i64 6656, ptr nonnull %1) #10
  call void @llvm.memset.p0.i64(ptr noundef nonnull align 16 dereferenceable(6656) %1, i8 0, i64 6656, i1 false)
  call void @llvm.lifetime.start.p0(i64 24, ptr nonnull %2) #10
  store i32 0, ptr %2, align 8, !tbaa !73
  %3 = getelementptr inbounds nuw i8, ptr %2, i64 4
  store i32 0, ptr %3, align 4
  %4 = getelementptr inbounds nuw i8, ptr %2, i64 8
  store ptr %1, ptr %4, align 8, !tbaa !76
  %5 = getelementptr inbounds nuw i8, ptr %2, i64 16
  store i32 0, ptr %5, align 8, !tbaa !77
  %6 = getelementptr inbounds nuw i8, ptr %2, i64 20
  store i32 1664, ptr %6, align 4, !tbaa !78
  br label %7

7:                                                ; preds = %0, %27
  %indvars.iv = phi i64 [ 0, %0 ], [ %indvars.iv.next, %27 ]
  %.04446 = phi i32 [ 0, %0 ], [ %28, %27 ]
  %8 = getelementptr inbounds nuw [409 x i8], ptr @ff_dv_vlc_len, i64 0, i64 %indvars.iv
  %9 = load i8, ptr %8, align 1, !tbaa !28
  %10 = sext i32 %.04446 to i64
  %11 = getelementptr inbounds %struct.VLCElem, ptr getelementptr inbounds nuw (i8, ptr @dv_rl_vlc, i64 3672), i64 %10
  %12 = getelementptr inbounds nuw i8, ptr %11, i64 2
  store i8 %9, ptr %12, align 2, !tbaa !28
  %13 = getelementptr inbounds nuw [409 x i8], ptr @ff_dv_vlc_run, i64 0, i64 %indvars.iv
  %14 = load i8, ptr %13, align 1, !tbaa !28
  %15 = getelementptr inbounds nuw i8, ptr %11, i64 3
  store i8 %14, ptr %15, align 1, !tbaa !28
  %16 = getelementptr inbounds nuw [409 x i8], ptr @ff_dv_vlc_level, i64 0, i64 %indvars.iv
  %17 = load i8, ptr %16, align 1, !tbaa !28
  %18 = zext i8 %17 to i16
  store i16 %18, ptr %11, align 4, !tbaa !28
  %.not = icmp eq i8 %17, 0
  br i1 %.not, label %27, label %19

19:                                               ; preds = %7
  %20 = add i8 %9, 1
  store i8 %20, ptr %12, align 2, !tbaa !28
  %21 = add nsw i32 %.04446, 1
  %22 = sext i32 %21 to i64
  %23 = getelementptr inbounds %struct.VLCElem, ptr getelementptr inbounds nuw (i8, ptr @dv_rl_vlc, i64 3672), i64 %22
  %24 = getelementptr inbounds nuw i8, ptr %23, i64 2
  store i8 %20, ptr %24, align 2, !tbaa !28
  %25 = getelementptr inbounds nuw i8, ptr %23, i64 3
  store i8 %14, ptr %25, align 1, !tbaa !28
  %26 = sub nsw i16 0, %18
  store i16 %26, ptr %23, align 4, !tbaa !28
  br label %27

27:                                               ; preds = %7, %19
  %.1 = phi i32 [ %21, %19 ], [ %.04446, %7 ]
  %indvars.iv.next = add nuw nsw i64 %indvars.iv, 1
  %28 = add nsw i32 %.1, 1
  %exitcond.not = icmp eq i64 %indvars.iv.next, 409
  br i1 %exitcond.not, label %29, label %7, !llvm.loop !79

29:                                               ; preds = %27
  %30 = call i32 @ff_vlc_init_from_lengths(ptr noundef nonnull %2, i32 noundef 10, i32 noundef %28, ptr noundef nonnull getelementptr inbounds nuw (i8, ptr @dv_rl_vlc, i64 3674), i32 noundef 4, ptr noundef null, i32 noundef 0, i32 noundef 0, i32 noundef 0, i32 noundef 1, ptr noundef null) #10
  %31 = load i32, ptr %5, align 8, !tbaa !77
  %32 = icmp sgt i32 %31, 0
  br i1 %32, label %.lr.ph, label %._crit_edge

.lr.ph:                                           ; preds = %29
  %33 = load ptr, ptr %4, align 8, !tbaa !76
  %wide.trip.count = zext nneg i32 %31 to i64
  br label %34

._crit_edge:                                      ; preds = %47, %29
  call void @llvm.lifetime.end.p0(i64 24, ptr nonnull %2) #10
  call void @llvm.lifetime.end.p0(i64 6656, ptr nonnull %1) #10
  ret void

34:                                               ; preds = %.lr.ph, %47
  %indvars.iv50 = phi i64 [ 0, %.lr.ph ], [ %indvars.iv.next51, %47 ]
  %35 = getelementptr inbounds nuw %struct.VLCElem, ptr %33, i64 %indvars.iv50
  %36 = load i16, ptr %35, align 2, !tbaa !28
  %37 = getelementptr inbounds nuw i8, ptr %35, i64 2
  %38 = load i16, ptr %37, align 2, !tbaa !28
  %39 = icmp slt i16 %38, 0
  br i1 %39, label %47, label %40

40:                                               ; preds = %34
  %41 = sext i16 %36 to i64
  %42 = getelementptr inbounds %struct.VLCElem, ptr getelementptr inbounds nuw (i8, ptr @dv_rl_vlc, i64 3672), i64 %41
  %43 = getelementptr inbounds nuw i8, ptr %42, i64 3
  %44 = load i8, ptr %43, align 1, !tbaa !28
  %45 = add i8 %44, 1
  %46 = load i16, ptr %42, align 4, !tbaa !28
  br label %47

47:                                               ; preds = %34, %40
  %.042.in = phi i16 [ %46, %40 ], [ %36, %34 ]
  %.0 = phi i8 [ %45, %40 ], [ 0, %34 ]
  %48 = trunc i16 %38 to i8
  %49 = getelementptr inbounds nuw [1664 x %struct.VLCElem], ptr @dv_rl_vlc, i64 0, i64 %indvars.iv50
  %50 = getelementptr inbounds nuw i8, ptr %49, i64 2
  store i8 %48, ptr %50, align 2, !tbaa !28
  store i16 %.042.in, ptr %49, align 4, !tbaa !28
  %51 = getelementptr inbounds nuw i8, ptr %49, i64 3
  store i8 %.0, ptr %51, align 1, !tbaa !28
  %indvars.iv.next51 = add nuw nsw i64 %indvars.iv50, 1
  %exitcond53.not = icmp eq i64 %indvars.iv.next51, %wide.trip.count
  br i1 %exitcond53.not, label %._crit_edge, label %34, !llvm.loop !80
}